; ModuleID = 'source-C-CXX/24/1278.cpp'
source_filename = "source-C-CXX/24/1278.cpp"
target datalayout = "e-m:e-p270:32:32-p271:32:32-p272:64:64-i64:64-f80:128-n8:16:32:64-S128"
target triple = "x86_64-pc-linux-gnu"

%"class.std::ios_base::Init" = type { i8 }
%"class.std::basic_istream" = type { i32 (...)**, i64, %"class.std::basic_ios" }
%"class.std::basic_ios" = type { %"class.std::ios_base", %"class.std::basic_ostream"*, i8, i8, %"class.std::basic_streambuf"*, %"class.std::ctype"*, %"class.std::num_put"*, %"class.std::num_get"* }
%"class.std::ios_base" = type { i32 (...)**, i64, i64, i32, i32, i32, %"struct.std::ios_base::_Callback_list"*, %"struct.std::ios_base::_Words", [8 x %"struct.std::ios_base::_Words"], i32, %"struct.std::ios_base::_Words"*, %"class.std::locale" }
%"struct.std::ios_base::_Callback_list" = type { %"struct.std::ios_base::_Callback_list"*, void (i32, %"class.std::ios_base"*, i32)*, i32, i32 }
%"struct.std::ios_base::_Words" = type { i8*, i64 }
%"class.std::locale" = type { %"class.std::locale::_Impl"* }
%"class.std::locale::_Impl" = type { i32, %"class.std::locale::facet"**, i64, %"class.std::locale::facet"**, i8** }
%"class.std::locale::facet" = type <{ i32 (...)**, i32, [4 x i8] }>
%"class.std::basic_ostream" = type { i32 (...)**, %"class.std::basic_ios" }
%"class.std::basic_streambuf" = type { i32 (...)**, i8*, i8*, i8*, i8*, i8*, i8*, %"class.std::locale" }
%"class.std::ctype" = type <{ %"class.std::locale::facet.base", [4 x i8], %struct.__locale_struct*, i8, [7 x i8], i32*, i32*, i16*, i8, [256 x i8], [256 x i8], i8, [6 x i8] }>
%"class.std::locale::facet.base" = type <{ i32 (...)**, i32 }>
%struct.__locale_struct = type { [13 x %struct.__locale_data*], i16*, i32*, i32*, [13 x i8*] }
%struct.__locale_data = type opaque
%"class.std::num_put" = type { %"class.std::locale::facet.base", [4 x i8] }
%"class.std::num_get" = type { %"class.std::locale::facet.base", [4 x i8] }

@_ZStL8__ioinit = internal global %"class.std::ios_base::Init" zeroinitializer, align 1
@__dso_handle = external hidden global i8
@_ZSt3cin = external global %"class.std::basic_istream", align 8
@_ZSt4cout = external global %"class.std::basic_ostream", align 8
@.str = private unnamed_addr constant [2 x i8] c"1\00", align 1
@llvm.global_ctors = appending global [1 x { i32, void ()*, i8* }] [{ i32, void ()*, i8* } { i32 65535, void ()* @_GLOBAL__sub_I_1278.cpp, i8* null }]

declare void @_ZNSt8ios_base4InitC1Ev(%"class.std::ios_base::Init"* nonnull align 1 dereferenceable(1)) unnamed_addr #0

; Function Attrs: nounwind
declare void @_ZNSt8ios_base4InitD1Ev(%"class.std::ios_base::Init"* nonnull align 1 dereferenceable(1)) unnamed_addr #1

; Function Attrs: nofree nounwind
declare i32 @__cxa_atexit(void (i8*)*, i8*, i8*) local_unnamed_addr #2

; Function Attrs: mustprogress norecurse sspstrong uwtable
define dso_local i32 @main() local_unnamed_addr #3 {
  %1 = alloca i32, align 4
  %2 = alloca [110 x i32], align 16
  %3 = bitcast i32* %1 to i8*
  call void @llvm.lifetime.start.p0i8(i64 4, i8* nonnull %3) #8
  %4 = bitcast [110 x i32]* %2 to i8*
  call void @llvm.lifetime.start.p0i8(i64 440, i8* nonnull %4) #8
  call void @llvm.memset.p0i8.i64(i8* noundef nonnull align 16 dereferenceable(440) %4, i8 0, i64 440, i1 false)
  %5 = call nonnull align 8 dereferenceable(16) %"class.std::basic_istream"* @_ZNSirsERi(%"class.std::basic_istream"* nonnull align 8 dereferenceable(16) @_ZSt3cin, i32* nonnull align 4 dereferenceable(4) %1)
  %6 = load i32, i32* %1, align 4, !tbaa !5
  %7 = icmp eq i32 %6, 0
  br i1 %7, label %8, label %10

8:                                                ; preds = %0
  %9 = call nonnull align 8 dereferenceable(8) %"class.std::basic_ostream"* @_ZSt16__ostream_insertIcSt11char_traitsIcEERSt13basic_ostreamIT_T0_ES6_PKS3_l(%"class.std::basic_ostream"* nonnull align 8 dereferenceable(8) @_ZSt4cout, i8* nonnull getelementptr inbounds ([2 x i8], [2 x i8]* @.str, i64 0, i64 0), i64 1)
  br label %121

10:                                               ; preds = %0
  %11 = getelementptr inbounds [110 x i32], [110 x i32]* %2, i64 0, i64 0
  store i32 1, i32* %11, align 16, !tbaa !5
  %12 = icmp slt i32 %6, 1
  br i1 %12, label %73, label %13

13:                                               ; preds = %10, %101
  %14 = phi i32 [ %107, %101 ], [ 1, %10 ]
  %15 = phi i32 [ %108, %101 ], [ 1, %10 ]
  %16 = call i32 @llvm.umax.i32(i32 %14, i32 1)
  %17 = zext i32 %16 to i64
  %18 = icmp ult i32 %16, 8
  br i1 %18, label %71, label %19

19:                                               ; preds = %13
  %20 = and i64 %17, 2147483640
  %21 = add nsw i64 %20, -8
  %22 = lshr exact i64 %21, 3
  %23 = add nuw nsw i64 %22, 1
  %24 = and i64 %23, 1
  %25 = icmp eq i64 %21, 0
  br i1 %25, label %55, label %26

26:                                               ; preds = %19
  %27 = and i64 %23, 4611686018427387902
  br label %28

28:                                               ; preds = %28, %26
  %29 = phi i64 [ 0, %26 ], [ %52, %28 ]
  %30 = phi i64 [ %27, %26 ], [ %53, %28 ]
  %31 = getelementptr inbounds [110 x i32], [110 x i32]* %2, i64 0, i64 %29
  %32 = bitcast i32* %31 to <4 x i32>*
  %33 = load <4 x i32>, <4 x i32>* %32, align 16, !tbaa !5
  %34 = getelementptr inbounds i32, i32* %31, i64 4
  %35 = bitcast i32* %34 to <4 x i32>*
  %36 = load <4 x i32>, <4 x i32>* %35, align 16, !tbaa !5
  %37 = shl nsw <4 x i32> %33, <i32 1, i32 1, i32 1, i32 1>
  %38 = shl nsw <4 x i32> %36, <i32 1, i32 1, i32 1, i32 1>
  %39 = bitcast i32* %31 to <4 x i32>*
  store <4 x i32> %37, <4 x i32>* %39, align 16, !tbaa !5
  %40 = bitcast i32* %34 to <4 x i32>*
  store <4 x i32> %38, <4 x i32>* %40, align 16, !tbaa !5
  %41 = or i64 %29, 8
  %42 = getelementptr inbounds [110 x i32], [110 x i32]* %2, i64 0, i64 %41
  %43 = bitcast i32* %42 to <4 x i32>*
  %44 = load <4 x i32>, <4 x i32>* %43, align 16, !tbaa !5
  %45 = getelementptr inbounds i32, i32* %42, i64 4
  %46 = bitcast i32* %45 to <4 x i32>*
  %47 = load <4 x i32>, <4 x i32>* %46, align 16, !tbaa !5
  %48 = shl nsw <4 x i32> %44, <i32 1, i32 1, i32 1, i32 1>
  %49 = shl nsw <4 x i32> %47, <i32 1, i32 1, i32 1, i32 1>
  %50 = bitcast i32* %42 to <4 x i32>*
  store <4 x i32> %48, <4 x i32>* %50, align 16, !tbaa !5
  %51 = bitcast i32* %45 to <4 x i32>*
  store <4 x i32> %49, <4 x i32>* %51, align 16, !tbaa !5
  %52 = add nuw i64 %29, 16
  %53 = add i64 %30, -2
  %54 = icmp eq i64 %53, 0
  br i1 %54, label %55, label %28, !llvm.loop !9

55:                                               ; preds = %28, %19
  %56 = phi i64 [ 0, %19 ], [ %52, %28 ]
  %57 = icmp eq i64 %24, 0
  br i1 %57, label %69, label %58

58:                                               ; preds = %55
  %59 = getelementptr inbounds [110 x i32], [110 x i32]* %2, i64 0, i64 %56
  %60 = bitcast i32* %59 to <4 x i32>*
  %61 = load <4 x i32>, <4 x i32>* %60, align 16, !tbaa !5
  %62 = getelementptr inbounds i32, i32* %59, i64 4
  %63 = bitcast i32* %62 to <4 x i32>*
  %64 = load <4 x i32>, <4 x i32>* %63, align 16, !tbaa !5
  %65 = shl nsw <4 x i32> %61, <i32 1, i32 1, i32 1, i32 1>
  %66 = shl nsw <4 x i32> %64, <i32 1, i32 1, i32 1, i32 1>
  %67 = bitcast i32* %59 to <4 x i32>*
  store <4 x i32> %65, <4 x i32>* %67, align 16, !tbaa !5
  %68 = bitcast i32* %62 to <4 x i32>*
  store <4 x i32> %66, <4 x i32>* %68, align 16, !tbaa !5
  br label %69

69:                                               ; preds = %55, %58
  %70 = icmp eq i64 %20, %17
  br i1 %70, label %83, label %71

71:                                               ; preds = %13, %69
  %72 = phi i64 [ 0, %13 ], [ %20, %69 ]
  br label %76

73:                                               ; preds = %101, %10
  %74 = phi i32 [ 1, %10 ], [ %107, %101 ]
  %75 = zext i32 %74 to i64
  br label %110

76:                                               ; preds = %71, %76
  %77 = phi i64 [ %81, %76 ], [ %72, %71 ]
  %78 = getelementptr inbounds [110 x i32], [110 x i32]* %2, i64 0, i64 %77
  %79 = load i32, i32* %78, align 4, !tbaa !5
  %80 = shl nsw i32 %79, 1
  store i32 %80, i32* %78, align 4, !tbaa !5
  %81 = add nuw nsw i64 %77, 1
  %82 = icmp eq i64 %81, %17
  br i1 %82, label %83, label %76, !llvm.loop !12

83:                                               ; preds = %76, %69
  br label %84

84:                                               ; preds = %83, %98
  %85 = phi i64 [ %99, %98 ], [ 0, %83 ]
  %86 = getelementptr inbounds [110 x i32], [110 x i32]* %2, i64 0, i64 %85
  %87 = load i32, i32* %86, align 4, !tbaa !5
  %88 = icmp sgt i32 %87, 9
  br i1 %88, label %91, label %89

89:                                               ; preds = %84
  %90 = add nuw nsw i64 %85, 1
  br label %98

91:                                               ; preds = %84
  %92 = udiv i32 %87, 10
  %93 = add nuw nsw i64 %85, 1
  %94 = getelementptr inbounds [110 x i32], [110 x i32]* %2, i64 0, i64 %93
  %95 = load i32, i32* %94, align 4, !tbaa !5
  %96 = add nsw i32 %95, %92
  store i32 %96, i32* %94, align 4, !tbaa !5
  %97 = urem i32 %87, 10
  store i32 %97, i32* %86, align 4, !tbaa !5
  br label %98

98:                                               ; preds = %89, %91
  %99 = phi i64 [ %90, %89 ], [ %93, %91 ]
  %100 = icmp eq i64 %99, %17
  br i1 %100, label %101, label %84, !llvm.loop !14

101:                                              ; preds = %98
  %102 = zext i32 %14 to i64
  %103 = getelementptr inbounds [110 x i32], [110 x i32]* %2, i64 0, i64 %102
  %104 = load i32, i32* %103, align 4, !tbaa !5
  %105 = icmp ne i32 %104, 0
  %106 = zext i1 %105 to i32
  %107 = add nuw nsw i32 %14, %106
  %108 = add nuw i32 %15, 1
  %109 = icmp eq i32 %15, %6
  br i1 %109, label %73, label %13, !llvm.loop !15

110:                                              ; preds = %73, %110
  %111 = phi i64 [ %75, %73 ], [ %120, %110 ]
  %112 = phi i32 [ %74, %73 ], [ %113, %110 ]
  %113 = add nsw i32 %112, -1
  %114 = zext i32 %113 to i64
  %115 = getelementptr inbounds [110 x i32], [110 x i32]* %2, i64 0, i64 %114
  %116 = load i32, i32* %115, align 4, !tbaa !5
  %117 = call nonnull align 8 dereferenceable(8) %"class.std::basic_ostream"* @_ZNSolsEi(%"class.std::basic_ostream"* nonnull align 8 dereferenceable(8) @_ZSt4cout, i32 %116)
  %118 = trunc i64 %111 to i32
  %119 = icmp sgt i32 %118, 1
  %120 = add nsw i64 %111, -1
  br i1 %119, label %110, label %121, !llvm.loop !16

121:                                              ; preds = %110, %8
  call void @llvm.lifetime.end.p0i8(i64 440, i8* nonnull %4) #8
  call void @llvm.lifetime.end.p0i8(i64 4, i8* nonnull %3) #8
  ret i32 0
}

; Function Attrs: argmemonly mustprogress nofree nosync nounwind willreturn
declare void @llvm.lifetime.start.p0i8(i64 immarg, i8* nocapture) #4

; Function Attrs: argmemonly mustprogress nofree nounwind willreturn writeonly
declare void @llvm.memset.p0i8.i64(i8* nocapture writeonly, i8, i64, i1 immarg) #5

declare nonnull align 8 dereferenceable(16) %"class.std::basic_istream"* @_ZNSirsERi(%"class.std::basic_istream"* nonnull align 8 dereferenceable(16), i32* nonnull align 4 dereferenceable(4)) local_unnamed_addr #0

declare nonnull align 8 dereferenceable(8) %"class.std::basic_ostream"* @_ZNSolsEi(%"class.std::basic_ostream"* nonnull align 8 dereferenceable(8), i32) local_unnamed_addr #0

; Function Attrs: argmemonly mustprogress nofree nosync nounwind willreturn
declare void @llvm.lifetime.end.p0i8(i64 immarg, i8* nocapture) #4

declare nonnull align 8 dereferenceable(8) %"class.std::basic_ostream"* @_ZSt16__ostream_insertIcSt11char_traitsIcEERSt13basic_ostreamIT_T0_ES6_PKS3_l(%"class.std::basic_ostream"* nonnull align 8 dereferenceable(8), i8*, i64) local_unnamed_addr #0

; Function Attrs: sspstrong uwtable
define internal void @_GLOBAL__sub_I_1278.cpp() #6 section ".text.startup" {
  tail call void @_ZNSt8ios_base4InitC1Ev(%"class.std::ios_base::Init"* nonnull align 1 dereferenceable(1) @_ZStL8__ioinit)
  %1 = tail call i32 @__cxa_atexit(void (i8*)* bitcast (void (%"class.std::ios_base::Init"*)* @_ZNSt8ios_base4InitD1Ev to void (i8*)*), i8* getelementptr inbounds (%"class.std::ios_base::Init", %"class.std::ios_base::Init"* @_ZStL8__ioinit, i64 0, i32 0), i8* nonnull @__dso_handle) #8
  ret void
}

; Function Attrs: nofree nosync nounwind readnone speculatable willreturn
declare i32 @llvm.umax.i32(i32, i32) #7


!llvm.module.flags = !{!0, !1, !2, !3}
!llvm.ident = !{!4}

!0 = !{i32 1, !"wchar_size", i32 4}
!1 = !{i32 7, !"PIC Level", i32 2}
!2 = !{i32 7, !"PIE Level", i32 2}
!3 = !{i32 7, !"uwtable", i32 1}
!4 = !{!"clang version 13.0.0"}
!5 = !{!6, !6, i64 0}
!6 = !{!"int", !7, i64 0}
!7 = !{!"omnipotent char", !8, i64 0}
!8 = !{!"Simple C++ TBAA"}
!9 = distinct !{!9, !10, !11}
!10 = !{!"llvm.loop.mustprogress"}
!11 = !{!"llvm.loop.isvectorized", i32 1}
!12 = distinct !{!12, !10, !13, !11}
!13 = !{!"llvm.loop.unroll.runtime.disable"}
!14 = distinct !{!14, !10}
!15 = distinct !{!15, !10}
!16 = distinct !{!16, !10}
